; Function Attrs: mustprogress uwtable
define void @_ZNK7openvdb5v11_015UnknownMetadata4copyEv(ptr noalias sret(%"class.std::shared_ptr") align 8 %agg.result, ptr noundef nonnull align 8 dereferenceable(64) %this) unnamed_addr #3 align 2 personality ptr @__gxx_personality_v0 {
entry:
  %call = tail call noalias noundef nonnull dereferenceable(64) ptr @_Znwm(i64 noundef 64) #20
  %mTypeName = getelementptr inbounds i8, ptr %this, i64 8
  store ptr getelementptr inbounds ({ [12 x ptr] }, ptr @_ZTVN7openvdb5v11_015UnknownMetadataE, i64 0, i32 0, i64 2), ptr %call, align 8
  %mTypeName.i = getelementptr inbounds i8, ptr %call, i64 8
  invoke void @_ZNSt7__cxx1112basic_stringIcSt11char_traitsIcESaIcEEC1ERKS4_(ptr noundef nonnull align 8 dereferenceable(32) %mTypeName.i, ptr noundef nonnull align 8 dereferenceable(32) %mTypeName)
          to label %invoke.cont unwind label %lpad

invoke.cont:                                      ; preds = %entry
  %mBytes.i = getelementptr inbounds i8, ptr %call, i64 40
  tail call void @llvm.memset.p0.i64(ptr noundef nonnull align 8 dereferenceable(24) %mBytes.i, i8 0, i64 24, i1 false)
  store ptr %call, ptr %agg.result, align 8
  %_M_refcount.i.i = getelementptr inbounds i8, ptr %agg.result, i64 8
  store ptr null, ptr %_M_refcount.i.i, align 8
  %call.i.i.i.i = invoke noalias noundef nonnull dereferenceable(24) ptr @_Znwm(i64 noundef 24) #20
          to label %_ZNSt10shared_ptrIN7openvdb5v11_08MetadataEEC2INS1_15UnknownMetadataEvEEPT_.exit unwind label %lpad.i.i.i.i

lpad.i.i.i.i:                                     ; preds = %invoke.cont
  %0 = landingpad { ptr, i32 }
          catch ptr null
  %1 = extractvalue { ptr, i32 } %0, 0
  %2 = tail call ptr @__cxa_begin_catch(ptr %1) #17
  %vtable.i.i.i.i = load ptr, ptr %call, align 8
  %vfn.i.i.i.i = getelementptr inbounds i8, ptr %vtable.i.i.i.i, i64 8
  %3 = load ptr, ptr %vfn.i.i.i.i, align 8
  tail call void %3(ptr noundef nonnull align 8 dereferenceable(64) %call) #17
  invoke void @__cxa_rethrow() #18
          to label %unreachable.i.i.i.i unwind label %lpad3.i.i.i.i

lpad3.i.i.i.i:                                    ; preds = %lpad.i.i.i.i
  %4 = landingpad { ptr, i32 }
          cleanup
  invoke void @__cxa_end_catch()
          to label %common.resume unwind label %terminate.lpad.i.i.i.i

common.resume:                                    ; preds = %lpad, %lpad3, %lpad3.i.i.i.i
  %common.resume.op = phi { ptr, i32 } [ %4, %lpad3.i.i.i.i ], [ %8, %lpad3 ], [ %7, %lpad ]
  resume { ptr, i32 } %common.resume.op

terminate.lpad.i.i.i.i:                           ; preds = %lpad3.i.i.i.i
  %5 = landingpad { ptr, i32 }
          catch ptr null
  %6 = extractvalue { ptr, i32 } %5, 0
  tail call void @__clang_call_terminate(ptr %6) #19
  unreachable

unreachable.i.i.i.i:                              ; preds = %lpad.i.i.i.i
  unreachable

_ZNSt10shared_ptrIN7openvdb5v11_08MetadataEEC2INS1_15UnknownMetadataEvEEPT_.exit: ; preds = %invoke.cont
  %_M_use_count.i.i.i.i.i.i = getelementptr inbounds i8, ptr %call.i.i.i.i, i64 8
  store i32 1, ptr %_M_use_count.i.i.i.i.i.i, align 8
  %_M_weak_count.i.i.i.i.i.i = getelementptr inbounds i8, ptr %call.i.i.i.i, i64 12
  store i32 1, ptr %_M_weak_count.i.i.i.i.i.i, align 4
  store ptr getelementptr inbounds ({ [7 x ptr] }, ptr @_ZTVSt15_Sp_counted_ptrIPN7openvdb5v11_015UnknownMetadataELN9__gnu_cxx12_Lock_policyE2EE, i64 0, i32 0, i64 2), ptr %call.i.i.i.i, align 8
  %_M_ptr.i.i.i.i.i = getelementptr inbounds i8, ptr %call.i.i.i.i, i64 16
  store ptr %call, ptr %_M_ptr.i.i.i.i.i, align 8
  store ptr %call.i.i.i.i, ptr %_M_refcount.i.i, align 8
  %mBytes = getelementptr inbounds i8, ptr %this, i64 40
  %call.i3 = invoke noundef nonnull align 8 dereferenceable(24) ptr @_ZNSt6vectorIhSaIhEEaSERKS1_(ptr noundef nonnull align 8 dereferenceable(24) %mBytes.i, ptr noundef nonnull align 8 dereferenceable(24) %mBytes)
          to label %nrvo.skipdtor unwind label %lpad3

lpad:                                             ; preds = %entry
  %7 = landingpad { ptr, i32 }
          cleanup
  tail call void @_ZdlPv(ptr noundef nonnull %call) #21
  br label %common.resume

lpad3:                                            ; preds = %_ZNSt10shared_ptrIN7openvdb5v11_08MetadataEEC2INS1_15UnknownMetadataEvEEPT_.exit
  %8 = landingpad { ptr, i32 }
          cleanup
  tail call void @_ZNSt10shared_ptrIN7openvdb5v11_08MetadataEED2Ev(ptr noundef nonnull align 8 dereferenceable(16) %agg.result) #17
  br label %common.resume

nrvo.skipdtor:                                    ; preds = %_ZNSt10shared_ptrIN7openvdb5v11_08MetadataEEC2INS1_15UnknownMetadataEvEEPT_.exit
  ret void
}